Certificate:
    Data:
        Version: 3 (0x2)
        Serial Number: 1 (0x1)
    Signature Algorithm: sha256WithRSAEncryption
        Issuer: C=US, O=Hazelcast, CN=Demo Certification Authority
        Validity
            Not Before: Aug 24 18:47:51 2023 GMT
            Not After : Aug 21 18:47:51 2033 GMT
        Subject: C=US, O=Hazelcast, CN=localhost
        Subject Public Key Info:
            Public Key Algorithm: rsaEncryption
                RSA Public-Key: (2048 bit)
                Modulus:
                    00:9d:b6:b0:fb:83:83:a5:b4:a8:19:1a:d4:67:fd:
                    09:d3:3c:9a:78:c5:eb:a4:9f:96:c9:57:8c:a2:a1:
                    6b:7b:2c:1f:fc:4b:f9:1b:87:3c:70:83:e2:07:67:
                    43:55:7d:f3:32:42:48:ab:75:07:02:ee:31:30:fb:
                    b8:ea:36:be:17:06:1e:61:92:fc:e8:24:d1:d7:1b:
                    90:f6:c1:d0:c2:d5:be:39:7c:61:e9:2b:5d:9a:ab:
                    c2:57:ba:07:5b:97:29:02:b0:f8:f8:5e:7e:db:30:
                    e5:3d:5b:42:b2:fb:75:c9:6d:5c:e2:54:c2:65:85:
                    fe:f0:57:7f:8e:bb:57:09:a3:50:b5:1c:a7:a5:a6:
                    a5:a8:84:64:50:38:aa:e2:0c:6e:ed:af:aa:90:b0:
                    1a:ad:db:7c:8e:20:1d:4d:b8:3d:4e:d2:da:c8:00:
                    65:a7:52:6a:82:50:e2:dc:3f:c4:e3:71:1c:fe:11:
                    ae:90:f4:77:15:ab:b0:b3:ce:f6:24:74:f4:d0:b5:
                    95:b6:c1:f1:70:f7:40:37:7e:02:e3:f9:9f:a2:05:
                    7c:3c:ae:18:d8:75:b0:c2:91:d6:04:3a:82:75:91:
                    3e:6b:bf:24:5f:a9:78:9a:42:b4:fb:cd:0f:cd:69:
                    6d:d2:10:ba:df:7e:e9:64:34:d1:91:a0:10:1a:6f:
                    18:6d
                Exponent: 65537 (0x10001)
        X509v3 extensions:
            X509v3 Basic Constraints: 
                CA:FALSE
            X509v3 Key Usage: 
                Digital Signature, Non Repudiation, Key Encipherment
            Authority Information Access: 
                OCSP - URI:http://localhost:16975

            X509v3 Subject Alternative Name: 
                DNS:my-server.my-company.com, DNS:server.my-company.com, DNS:server.my-company.com, IP Address:172.17.0.2, IP Address:172.17.0.3
    Signature Algorithm: sha256WithRSAEncryption
         b6:97:b7:d5:b6:73:14:b5:fb:98:1f:b5:45:10:ff:0c:83:0f:
         5a:e8:32:20:00:a0:05:c3:52:64:e7:54:ae:67:57:20:62:d5:
         48:b4:ed:ef:8e:83:4f:f8:87:c2:24:6d:81:1d:98:fd:bb:16:
         30:3e:86:e6:27:26:04:6f:aa:3b:d3:a5:61:84:d6:a8:de:7d:
         b4:17:11:1a:d3:ca:a3:15:e9:b6:6b:92:f9:dc:b2:b8:b8:e7:
         1a:b3:f4:37:5c:f1:91:0d:63:6a:24:82:b7:91:ba:ab:c1:92:
         ce:4d:78:4c:e8:52:5c:c3:17:33:12:00:09:2b:52:e4:bb:01:
         1d:1a:d6:f8:d9:bf:1b:42:82:5d:0d:4b:e5:2f:e7:8c:c1:e8:
         b4:b2:9e:c8:8c:16:e2:84:4b:f1:e5:ea:77:bf:2d:67:8d:fd:
         4a:4e:7c:d5:ce:b1:73:0a:9a:fb:e2:1f:5c:d4:80:00:e0:4d:
         90:41:da:5d:da:ec:0f:84:af:7c:28:2f:b5:97:20:aa:a9:b7:
         59:10:39:6a:b0:7f:8b:c9:7b:1b:c2:e2:81:3d:07:b3:1c:f0:
         26:e7:34:52:70:93:63:b9:f0:cd:f9:bb:41:28:4d:e0:15:97:
         03:43:c8:24:3c:61:62:4d:66:48:f0:a1:aa:16:50:30:39:13:
         e6:26:71:a5
-----BEGIN CERTIFICATE-----
MIIDpzCCAo+gAwIBAgIBATANBgkqhkiG9w0BAQsFADBIMQswCQYDVQQGEwJVUzES
MBAGA1UECgwJSGF6ZWxjYXN0MSUwIwYDVQQDDBxEZW1vIENlcnRpZmljYXRpb24g
QXV0aG9yaXR5MB4XDTIzMDgyNDE4NDc1MVoXDTMzMDgyMTE4NDc1MVowNTELMAkG
A1UEBhMCVVMxEjAQBgNVBAoMCUhhemVsY2FzdDESMBAGA1UEAwwJbG9jYWxob3N0
MIIBIjANBgkqhkiG9w0BAQEFAAOCAQ8AMIIBCgKCAQEAnbaw+4ODpbSoGRrUZ/0J
0zyaeMXrpJ+WyVeMoqFreywf/Ev5G4c8cIPiB2dDVX3zMkJIq3UHAu4xMPu46ja+
FwYeYZL86CTR1xuQ9sHQwtW+OXxh6StdmqvCV7oHW5cpArD4+F5+2zDlPVtCsvt1
yW1c4lTCZYX+8Fd/jrtXCaNQtRynpaalqIRkUDiq4gxu7a+qkLAardt8jiAdTbg9
TtLayABlp1JqglDi3D/E43Ec/hGukPR3Fauws872JHT00LWVtsHxcPdAN34C4/mf
ogV8PK4Y2HWwwpHWBDqCdZE+a78kX6l4mkK0+80PzWlt0hC6337pZDTRkaAQGm8Y
bQIDAQABo4GuMIGrMAkGA1UdEwQCMAAwCwYDVR0PBAQDAgXgMDIGCCsGAQUFBwEB
BCYwJDAiBggrBgEFBQcwAYYWaHR0cDovL2xvY2FsaG9zdDoxNjk3NTBdBgNVHREE
VjBUghhteS1zZXJ2ZXIubXktY29tcGFueS5jb22CFXNlcnZlci5teS1jb21wYW55
LmNvbYIVc2VydmVyLm15LWNvbXBhbnkuY29thwSsEQAChwSsEQADMA0GCSqGSIb3
DQEBCwUAA4IBAQC2l7fVtnMUtfuYH7VFEP8Mgw9a6DIgAKAFw1Jk51SuZ1cgYtVI
tO3vjoNP+IfCJG2BHZj9uxYwPobmJyYEb6o706VhhNao3n20FxEa08qjFem2a5L5
3LK4uOcas/Q3XPGRDWNqJIK3kbqrwZLOTXhM6FJcwxczEgAJK1LkuwEdGtb42b8b
QoJdDUvlL+eMwei0sp7IjBbihEvx5ep3vy1njf1KTnzVzrFzCpr74h9c1IAA4E2Q
Qdpd2uwPhK98KC+1lyCqqbdZEDlqsH+LyXsbwuKBPQezHPAm5zRScJNjufDN+btB
KE3gFZcDQ8gkPGFiTWZI8KGqFlAwORPmJnGl
-----END CERTIFICATE-----
